; Function Attrs: nounwind uwtable
define internal i32 @SDL_sscanf_DEFAULT(ptr noundef %0, ptr noundef %1, ...) #0 {
  %3 = alloca [1 x %struct.__va_list_tag], align 16
  call void @llvm.lifetime.start.p0(i64 24, ptr nonnull %3) #12
  tail call fastcc void @SDL_InitDynamicAPI()
  call void @llvm.va_start.p0(ptr nonnull %3)
  %4 = load ptr, ptr getelementptr inbounds nuw (i8, ptr @jump_table, i64 9280), align 8
  %5 = call i32 %4(ptr noundef %0, ptr noundef %1, ptr noundef nonnull %3) #12
  call void @llvm.va_end.p0(ptr nonnull %3)
  call void @llvm.lifetime.end.p0(i64 24, ptr nonnull %3) #12
  ret i32 %5
}